target datalayout = "e-m:e-p270:32:32-p271:32:32-p272:64:64-i64:64-i128:128-f80:128-n8:16:32:64-S128"
target triple = "x86_64-pc-linux-gnu"

%class.QColor = type <{ i32, %"union.QColor::CT", [2 x i8] }>
%"union.QColor::CT" = type { %struct.anon }
%struct.anon = type { i16, i16, i16, i16, i16 }
%struct.color_t = type { i16, i16, i16 }

; Function Attrs: mustprogress nounwind willreturn memory(none) uwtable
define linkonce_odr noundef zeroext i1 @_ZN6QColor11isRgbaValidEiiii(i32 noundef %0, i32 noundef %1, i32 noundef %2, i32 noundef %3) #8 comdat align 2 {
  %5 = alloca i32, align 4
  %6 = alloca i32, align 4
  %7 = alloca i32, align 4
  %8 = alloca i32, align 4
  store i32 %0, ptr %5, align 4
  store i32 %1, ptr %6, align 4
  store i32 %2, ptr %7, align 4
  store i32 %3, ptr %8, align 4
  %9 = load i32, ptr %5, align 4
  %10 = icmp ule i32 %9, 255
  br i1 %10, label %11, label %20

11:                                               ; preds = %4
  %12 = load i32, ptr %6, align 4
  %13 = icmp ule i32 %12, 255
  br i1 %13, label %14, label %20

14:                                               ; preds = %11
  %15 = load i32, ptr %7, align 4
  %16 = icmp ule i32 %15, 255
  br i1 %16, label %17, label %20

17:                                               ; preds = %14
  %18 = load i32, ptr %8, align 4
  %19 = icmp ule i32 %18, 255
  br label %20

20:                                               ; preds = %17, %14, %11, %4
  %21 = phi i1 [ false, %14 ], [ false, %11 ], [ false, %4 ], [ %19, %17 ]
  ret i1 %21
}

; Function Attrs: mustprogress nounwind uwtable
define linkonce_odr void @_ZN6QColor2CTC2Ettttt(ptr noundef nonnull align 2 dereferenceable(10) %0, i16 noundef zeroext %1, i16 noundef zeroext %2, i16 noundef zeroext %3, i16 noundef zeroext %4, i16 noundef zeroext %5) unnamed_addr #2 comdat align 2 {
  %7 = alloca ptr, align 8
  %8 = alloca i16, align 2
  %9 = alloca i16, align 2
  %10 = alloca i16, align 2
  %11 = alloca i16, align 2
  %12 = alloca i16, align 2
  store ptr %0, ptr %7, align 8
  store i16 %1, ptr %8, align 2
  store i16 %2, ptr %9, align 2
  store i16 %3, ptr %10, align 2
  store i16 %4, ptr %11, align 2
  store i16 %5, ptr %12, align 2
  %13 = load ptr, ptr %7, align 8
  %14 = getelementptr inbounds [5 x i16], ptr %13, i64 0, i64 0
  %15 = load i16, ptr %8, align 2
  store i16 %15, ptr %14, align 2
  %16 = getelementptr inbounds i16, ptr %14, i64 1
  %17 = load i16, ptr %9, align 2
  store i16 %17, ptr %16, align 2
  %18 = getelementptr inbounds i16, ptr %16, i64 1
  %19 = load i16, ptr %10, align 2
  store i16 %19, ptr %18, align 2
  %20 = getelementptr inbounds i16, ptr %18, i64 1
  %21 = load i16, ptr %11, align 2
  store i16 %21, ptr %20, align 2
  %22 = getelementptr inbounds i16, ptr %20, i64 1
  %23 = load i16, ptr %12, align 2
  store i16 %23, ptr %22, align 2
  ret void
}

; Function Attrs: mustprogress nounwind uwtable
define linkonce_odr void @_ZN6QColorC2Eiiii(ptr noundef nonnull align 4 dereferenceable(14) %0, i32 noundef %1, i32 noundef %2, i32 noundef %3, i32 noundef %4) unnamed_addr #2 comdat align 2 {
  %6 = alloca ptr, align 8
  %7 = alloca i32, align 4
  %8 = alloca i32, align 4
  %9 = alloca i32, align 4
  %10 = alloca i32, align 4
  store ptr %0, ptr %6, align 8
  store i32 %1, ptr %7, align 4
  store i32 %2, ptr %8, align 4
  store i32 %3, ptr %9, align 4
  store i32 %4, ptr %10, align 4
  %11 = load ptr, ptr %6, align 8
  %12 = getelementptr inbounds %class.QColor, ptr %11, i32 0, i32 0
  %13 = load i32, ptr %7, align 4
  %14 = load i32, ptr %8, align 4
  %15 = load i32, ptr %9, align 4
  %16 = load i32, ptr %10, align 4
  %17 = call noundef zeroext i1 @_ZN6QColor11isRgbaValidEiiii(i32 noundef %13, i32 noundef %14, i32 noundef %15, i32 noundef %16) #13
  %18 = select i1 %17, i32 1, i32 0
  store i32 %18, ptr %12, align 4
  %19 = getelementptr inbounds %class.QColor, ptr %11, i32 0, i32 1
  %20 = getelementptr inbounds %class.QColor, ptr %11, i32 0, i32 0
  %21 = load i32, ptr %20, align 4
  %22 = icmp eq i32 %21, 1
  br i1 %22, label %23, label %26

23:                                               ; preds = %5
  %24 = load i32, ptr %10, align 4
  %25 = mul i32 %24, 257
  br label %27

26:                                               ; preds = %5
  br label %27

27:                                               ; preds = %26, %23
  %28 = phi i32 [ %25, %23 ], [ 0, %26 ]
  %29 = trunc i32 %28 to i16
  %30 = getelementptr inbounds %class.QColor, ptr %11, i32 0, i32 0
  %31 = load i32, ptr %30, align 4
  %32 = icmp eq i32 %31, 1
  br i1 %32, label %33, label %36

33:                                               ; preds = %27
  %34 = load i32, ptr %7, align 4
  %35 = mul i32 %34, 257
  br label %37

36:                                               ; preds = %27
  br label %37

37:                                               ; preds = %36, %33
  %38 = phi i32 [ %35, %33 ], [ 0, %36 ]
  %39 = trunc i32 %38 to i16
  %40 = getelementptr inbounds %class.QColor, ptr %11, i32 0, i32 0
  %41 = load i32, ptr %40, align 4
  %42 = icmp eq i32 %41, 1
  br i1 %42, label %43, label %46

43:                                               ; preds = %37
  %44 = load i32, ptr %8, align 4
  %45 = mul i32 %44, 257
  br label %47

46:                                               ; preds = %37
  br label %47

47:                                               ; preds = %46, %43
  %48 = phi i32 [ %45, %43 ], [ 0, %46 ]
  %49 = trunc i32 %48 to i16
  %50 = getelementptr inbounds %class.QColor, ptr %11, i32 0, i32 0
  %51 = load i32, ptr %50, align 4
  %52 = icmp eq i32 %51, 1
  br i1 %52, label %53, label %56

53:                                               ; preds = %47
  %54 = load i32, ptr %9, align 4
  %55 = mul i32 %54, 257
  br label %57

56:                                               ; preds = %47
  br label %57

57:                                               ; preds = %56, %53
  %58 = phi i32 [ %55, %53 ], [ 0, %56 ]
  %59 = trunc i32 %58 to i16
  call void @_ZN6QColor2CTC2Ettttt(ptr noundef nonnull align 2 dereferenceable(10) %19, i16 noundef zeroext %29, i16 noundef zeroext %39, i16 noundef zeroext %49, i16 noundef zeroext %59, i16 noundef zeroext 0) #6
  ret void
}

; Function Attrs: mustprogress nounwind uwtable
define linkonce_odr void @_ZN6QColorC2Ev(ptr noundef nonnull align 4 dereferenceable(14) %0) unnamed_addr #2 comdat align 2 {
  %2 = alloca ptr, align 8
  store ptr %0, ptr %2, align 8
  %3 = load ptr, ptr %2, align 8
  %4 = getelementptr inbounds %class.QColor, ptr %3, i32 0, i32 0
  store i32 0, ptr %4, align 4
  %5 = getelementptr inbounds %class.QColor, ptr %3, i32 0, i32 1
  call void @_ZN6QColor2CTC2Ettttt(ptr noundef nonnull align 2 dereferenceable(10) %5, i16 noundef zeroext -1, i16 noundef zeroext 0, i16 noundef zeroext 0, i16 noundef zeroext 0, i16 noundef zeroext 0) #6
  ret void
}

; Function Attrs: mustprogress nounwind uwtable
define { i64, i64 } @_ZN10ColorUtils10fromColorTEPK7color_t(ptr noundef %0) #2 align 2 {
  %2 = alloca %class.QColor, align 4
  %3 = alloca ptr, align 8
  store ptr %0, ptr %3, align 8
  %4 = load ptr, ptr %3, align 8
  %5 = icmp ne ptr %4, null
  br i1 %5, label %7, label %6

6:                                                ; preds = %1
  call void @_ZN6QColorC2Ev(ptr noundef nonnull align 4 dereferenceable(14) %2) #6
  br label %23

7:                                                ; preds = %1
  %8 = load ptr, ptr %3, align 8
  %9 = getelementptr inbounds %struct.color_t, ptr %8, i32 0, i32 0
  %10 = load i16, ptr %9, align 2
  %11 = zext i16 %10 to i32
  %12 = ashr i32 %11, 8
  %13 = load ptr, ptr %3, align 8
  %14 = getelementptr inbounds %struct.color_t, ptr %13, i32 0, i32 1
  %15 = load i16, ptr %14, align 2
  %16 = zext i16 %15 to i32
  %17 = ashr i32 %16, 8
  %18 = load ptr, ptr %3, align 8
  %19 = getelementptr inbounds %struct.color_t, ptr %18, i32 0, i32 2
  %20 = load i16, ptr %19, align 2
  %21 = zext i16 %20 to i32
  %22 = ashr i32 %21, 8
  call void @_ZN6QColorC2Eiiii(ptr noundef nonnull align 4 dereferenceable(14) %2, i32 noundef %12, i32 noundef %17, i32 noundef %22, i32 noundef 255) #6
  br label %23

23:                                               ; preds = %7, %6
  %24 = load { i64, i64 }, ptr %2, align 4
  ret { i64, i64 } %24
}