; Function Attrs: mustprogress nofree norecurse nosync nounwind willreturn memory(argmem: read) uwtable
define { i64, i64 } @_ZN10ColorUtils10fromColorTEPK7color_t(ptr noundef readonly %0) local_unnamed_addr #2 align 2 {
  %2 = alloca %class.QColor, align 8
  %.not = icmp eq ptr %0, null
  br i1 %.not, label %3, label %4

3:                                                ; preds = %1
  %.6..6..6..sroa_idx = getelementptr inbounds i8, ptr %2, i64 6
  store i64 0, ptr %.6..6..6..sroa_idx, align 2
  br label %12

4:                                                ; preds = %1
  %5 = getelementptr inbounds i8, ptr %0, i64 4
  %6 = load i16, ptr %5, align 2
  %7 = lshr i16 %6, 8
  %8 = mul nuw i16 %7, 257
  %9 = load <2 x i16>, ptr %0, align 2
  %10 = lshr <2 x i16> %9, <i16 8, i16 8>
  %11 = mul nuw <2 x i16> %10, <i16 257, i16 257>
  %.6..6..6..sroa_idx8 = getelementptr inbounds i8, ptr %2, i64 6
  store <2 x i16> %11, ptr %.6..6..6..sroa_idx8, align 2
  %.10..10..10..sroa_idx = getelementptr inbounds i8, ptr %2, i64 10
  store i16 %8, ptr %.10..10..10..sroa_idx, align 2
  %.12..12..12..sroa_idx = getelementptr inbounds i8, ptr %2, i64 12
  store i16 0, ptr %.12..12..12..sroa_idx, align 4
  br label %12

12:                                               ; preds = %4, %3
  %.sink = phi i32 [ 0, %3 ], [ 1, %4 ]
  store i32 %.sink, ptr %2, align 8
  %.4..sroa_idx = getelementptr inbounds i8, ptr %2, i64 4
  store i16 -1, ptr %.4..sroa_idx, align 4
  %.0..0..0..fca.0.load = load i64, ptr %2, align 8
  %.fca.0.insert = insertvalue { i64, i64 } poison, i64 %.0..0..0..fca.0.load, 0
  %.8..8..8..fca.1.gep.sroa_idx = getelementptr inbounds i8, ptr %2, i64 8
  %.8..8..8..fca.1.load = load i64, ptr %.8..8..8..fca.1.gep.sroa_idx, align 8
  %.fca.1.insert = insertvalue { i64, i64 } %.fca.0.insert, i64 %.8..8..8..fca.1.load, 1
  ret { i64, i64 } %.fca.1.insert
}